target datalayout = "e-m:e-p270:32:32-p271:32:32-p272:64:64-i64:64-i128:128-f80:128-n8:16:32:64-S128"
target triple = "x86_64-pc-linux-gnu"

%struct.pmix_object_t = type { %union.pthread_mutex_t, ptr, i32, %struct.pmix_tma }
%union.pthread_mutex_t = type { %struct.__pthread_mutex_s }
%struct.__pthread_mutex_s = type { i32, i32, i32, i32, i32, i16, i16, %struct.__pthread_internal_list }
%struct.__pthread_internal_list = type { ptr, ptr }
%struct.pmix_tma = type { ptr, ptr, ptr, ptr, ptr, ptr, ptr, ptr }
%struct.pmix_list_t = type { %struct.pmix_object_t, %struct.pmix_list_item_t, i64 }
%struct.pmix_list_item_t = type { %struct.pmix_object_t, ptr, ptr, i32 }
%struct.pmix_value = type { i16, %union.anon.10 }
%union.anon.10 = type { %struct.pmix_envar_t }
%struct.pmix_envar_t = type { ptr, ptr, i8 }
%struct.timeval = type { i64, i64 }
%struct.pmix_peer_t = type { %struct.pmix_object_t, ptr, ptr, %struct.pmix_proc_type_t, i16, i32, i32, i32, i8, %struct.event, i8, %struct.event, i8, %struct.pmix_list_t, ptr, ptr, i32, %struct.pmix_epilog_t }
%struct.pmix_proc_type_t = type { i32, i8, i8, i8, i8 }
%struct.event = type { %struct.event_callback, %union.anon.0, i32, ptr, %union.anon.2, i16, i16, %struct.timeval }
%struct.event_callback = type { %struct.anon, i16, i8, i8, %union.anon, ptr }
%struct.anon = type { ptr, ptr }
%union.anon = type { ptr }
%union.anon.0 = type { %struct.anon.1 }
%struct.anon.1 = type { ptr, ptr }
%union.anon.2 = type { %struct.anon.3 }
%struct.anon.3 = type { %struct.anon.4, %struct.timeval }
%struct.anon.4 = type { ptr, ptr }
%struct.pmix_epilog_t = type { i32, i32, %struct.pmix_list_t, %struct.pmix_list_t, %struct.pmix_list_t }
%struct.pmix_info = type { [512 x i8], i32, %struct.pmix_value }

@.str.32 = private unnamed_addr constant [15 x i8] c"pmix.fwd.stdin\00", align 1
@.str.33 = private unnamed_addr constant [16 x i8] c"pmix.fwd.stdout\00", align 1
@.str.34 = private unnamed_addr constant [16 x i8] c"pmix.fwd.stderr\00", align 1
@.str.35 = private unnamed_addr constant [17 x i8] c"pmix.fwd.stddiag\00", align 1

; Function Attrs: nounwind uwtable
define void @pmix_server_spawn_parser(ptr noundef %0, ptr noundef %1, ptr noundef %2, ptr noundef %3, i64 noundef %4) #0 {
  %6 = alloca ptr, align 8
  %7 = alloca ptr, align 8
  %8 = alloca ptr, align 8
  %9 = alloca ptr, align 8
  %10 = alloca i64, align 8
  %11 = alloca i64, align 8
  %12 = alloca i8, align 1
  %13 = alloca i8, align 1
  %14 = alloca i8, align 1
  store ptr %0, ptr %6, align 8, !tbaa !3
  store ptr %1, ptr %7, align 8, !tbaa !266
  store ptr %2, ptr %8, align 8, !tbaa !8
  store ptr %3, ptr %9, align 8, !tbaa !213
  store i64 %4, ptr %10, align 8, !tbaa !53
  call void @llvm.lifetime.start.p0(i64 8, ptr %11) #14
  call void @llvm.lifetime.start.p0(i64 1, ptr %12) #14
  store i8 0, ptr %12, align 1, !tbaa !157
  call void @llvm.lifetime.start.p0(i64 1, ptr %13) #14
  store i8 0, ptr %13, align 1, !tbaa !157
  call void @llvm.lifetime.start.p0(i64 1, ptr %14) #14
  store i8 0, ptr %14, align 1, !tbaa !157
  %15 = load ptr, ptr %7, align 8, !tbaa !266
  store i16 0, ptr %15, align 2, !tbaa !228
  store i64 0, ptr %11, align 8, !tbaa !53
  br label %16

16:                                               ; preds = %117, %5
  %17 = load i64, ptr %11, align 8, !tbaa !53
  %18 = load i64, ptr %10, align 8, !tbaa !53
  %19 = icmp ult i64 %17, %18
  br i1 %19, label %20, label %120

20:                                               ; preds = %16
  %21 = load ptr, ptr %9, align 8, !tbaa !213
  %22 = load i64, ptr %11, align 8, !tbaa !53
  %23 = getelementptr inbounds nuw %struct.pmix_info, ptr %21, i64 %22
  %24 = getelementptr inbounds nuw %struct.pmix_info, ptr %23, i32 0, i32 0
  %25 = getelementptr inbounds [512 x i8], ptr %24, i64 0, i64 0
  %26 = call zeroext i1 @PMIx_Check_key(ptr noundef %25, ptr noundef @.str.32)
  br i1 %26, label %27, label %42

27:                                               ; preds = %20
  %28 = load ptr, ptr %9, align 8, !tbaa !213
  %29 = load i64, ptr %11, align 8, !tbaa !53
  %30 = getelementptr inbounds nuw %struct.pmix_info, ptr %28, i64 %29
  %31 = call i32 @PMIx_Info_true(ptr noundef %30)
  %32 = icmp eq i32 0, %31
  br i1 %32, label %33, label %34

33:                                               ; preds = %27
  br i1 true, label %35, label %41

34:                                               ; preds = %27
  br i1 false, label %35, label %41

35:                                               ; preds = %34, %33
  %36 = load ptr, ptr %7, align 8, !tbaa !266
  %37 = load i16, ptr %36, align 2, !tbaa !228
  %38 = zext i16 %37 to i32
  %39 = or i32 %38, 1
  %40 = trunc i32 %39 to i16
  store i16 %40, ptr %36, align 2, !tbaa !228
  br label %41

41:                                               ; preds = %35, %34, %33
  br label %116

42:                                               ; preds = %20
  %43 = load ptr, ptr %9, align 8, !tbaa !213
  %44 = load i64, ptr %11, align 8, !tbaa !53
  %45 = getelementptr inbounds nuw %struct.pmix_info, ptr %43, i64 %44
  %46 = getelementptr inbounds nuw %struct.pmix_info, ptr %45, i32 0, i32 0
  %47 = getelementptr inbounds [512 x i8], ptr %46, i64 0, i64 0
  %48 = call zeroext i1 @PMIx_Check_key(ptr noundef %47, ptr noundef @.str.33)
  br i1 %48, label %49, label %64

49:                                               ; preds = %42
  store i8 1, ptr %12, align 1, !tbaa !157
  %50 = load ptr, ptr %9, align 8, !tbaa !213
  %51 = load i64, ptr %11, align 8, !tbaa !53
  %52 = getelementptr inbounds nuw %struct.pmix_info, ptr %50, i64 %51
  %53 = call i32 @PMIx_Info_true(ptr noundef %52)
  %54 = icmp eq i32 0, %53
  br i1 %54, label %55, label %56

55:                                               ; preds = %49
  br i1 true, label %57, label %63

56:                                               ; preds = %49
  br i1 false, label %57, label %63

57:                                               ; preds = %56, %55
  %58 = load ptr, ptr %7, align 8, !tbaa !266
  %59 = load i16, ptr %58, align 2, !tbaa !228
  %60 = zext i16 %59 to i32
  %61 = or i32 %60, 2
  %62 = trunc i32 %61 to i16
  store i16 %62, ptr %58, align 2, !tbaa !228
  br label %63

63:                                               ; preds = %57, %56, %55
  br label %115

64:                                               ; preds = %42
  %65 = load ptr, ptr %9, align 8, !tbaa !213
  %66 = load i64, ptr %11, align 8, !tbaa !53
  %67 = getelementptr inbounds nuw %struct.pmix_info, ptr %65, i64 %66
  %68 = getelementptr inbounds nuw %struct.pmix_info, ptr %67, i32 0, i32 0
  %69 = getelementptr inbounds [512 x i8], ptr %68, i64 0, i64 0
  %70 = call zeroext i1 @PMIx_Check_key(ptr noundef %69, ptr noundef @.str.34)
  br i1 %70, label %71, label %86

71:                                               ; preds = %64
  store i8 1, ptr %13, align 1, !tbaa !157
  %72 = load ptr, ptr %9, align 8, !tbaa !213
  %73 = load i64, ptr %11, align 8, !tbaa !53
  %74 = getelementptr inbounds nuw %struct.pmix_info, ptr %72, i64 %73
  %75 = call i32 @PMIx_Info_true(ptr noundef %74)
  %76 = icmp eq i32 0, %75
  br i1 %76, label %77, label %78

77:                                               ; preds = %71
  br i1 true, label %79, label %85

78:                                               ; preds = %71
  br i1 false, label %79, label %85

79:                                               ; preds = %78, %77
  %80 = load ptr, ptr %7, align 8, !tbaa !266
  %81 = load i16, ptr %80, align 2, !tbaa !228
  %82 = zext i16 %81 to i32
  %83 = or i32 %82, 4
  %84 = trunc i32 %83 to i16
  store i16 %84, ptr %80, align 2, !tbaa !228
  br label %85

85:                                               ; preds = %79, %78, %77
  br label %114

86:                                               ; preds = %64
  %87 = load ptr, ptr %9, align 8, !tbaa !213
  %88 = load i64, ptr %11, align 8, !tbaa !53
  %89 = getelementptr inbounds nuw %struct.pmix_info, ptr %87, i64 %88
  %90 = getelementptr inbounds nuw %struct.pmix_info, ptr %89, i32 0, i32 0
  %91 = getelementptr inbounds [512 x i8], ptr %90, i64 0, i64 0
  %92 = call zeroext i1 @PMIx_Check_key(ptr noundef %91, ptr noundef @.str.35)
  br i1 %92, label %93, label %108

93:                                               ; preds = %86
  store i8 1, ptr %14, align 1, !tbaa !157
  %94 = load ptr, ptr %9, align 8, !tbaa !213
  %95 = load i64, ptr %11, align 8, !tbaa !53
  %96 = getelementptr inbounds nuw %struct.pmix_info, ptr %94, i64 %95
  %97 = call i32 @PMIx_Info_true(ptr noundef %96)
  %98 = icmp eq i32 0, %97
  br i1 %98, label %99, label %100

99:                                               ; preds = %93
  br i1 true, label %101, label %107

100:                                              ; preds = %93
  br i1 false, label %101, label %107

101:                                              ; preds = %100, %99
  %102 = load ptr, ptr %7, align 8, !tbaa !266
  %103 = load i16, ptr %102, align 2, !tbaa !228
  %104 = zext i16 %103 to i32
  %105 = or i32 %104, 8
  %106 = trunc i32 %105 to i16
  store i16 %106, ptr %102, align 2, !tbaa !228
  br label %107

107:                                              ; preds = %101, %100, %99
  br label %113

108:                                              ; preds = %86
  %109 = load ptr, ptr %9, align 8, !tbaa !213
  %110 = load i64, ptr %11, align 8, !tbaa !53
  %111 = getelementptr inbounds nuw %struct.pmix_info, ptr %109, i64 %110
  %112 = load ptr, ptr %8, align 8, !tbaa !8
  call void @pmix_iof_check_flags(ptr noundef %111, ptr noundef %112)
  br label %113

113:                                              ; preds = %108, %107
  br label %114

114:                                              ; preds = %113, %85
  br label %115

115:                                              ; preds = %114, %63
  br label %116

116:                                              ; preds = %115, %41
  br label %117

117:                                              ; preds = %116
  %118 = load i64, ptr %11, align 8, !tbaa !53
  %119 = add i64 %118, 1
  store i64 %119, ptr %11, align 8, !tbaa !53
  br label %16, !llvm.loop !268

120:                                              ; preds = %16
  %121 = load ptr, ptr %6, align 8, !tbaa !3
  %122 = getelementptr inbounds nuw %struct.pmix_peer_t, ptr %121, i32 0, i32 3
  %123 = getelementptr inbounds nuw %struct.pmix_proc_type_t, ptr %122, i32 0, i32 0
  %124 = load i32, ptr %123, align 8, !tbaa !269
  %125 = and i32 4, %124
  %126 = icmp ne i32 %125, 0
  br i1 %126, label %127, label %155

127:                                              ; preds = %120
  %128 = load i8, ptr %12, align 1, !tbaa !157, !range !116, !noundef !117
  %129 = trunc i8 %128 to i1
  br i1 %129, label %136, label %130

130:                                              ; preds = %127
  %131 = load ptr, ptr %7, align 8, !tbaa !266
  %132 = load i16, ptr %131, align 2, !tbaa !228
  %133 = zext i16 %132 to i32
  %134 = or i32 %133, 2
  %135 = trunc i32 %134 to i16
  store i16 %135, ptr %131, align 2, !tbaa !228
  br label %136

136:                                              ; preds = %130, %127
  %137 = load i8, ptr %13, align 1, !tbaa !157, !range !116, !noundef !117
  %138 = trunc i8 %137 to i1
  br i1 %138, label %145, label %139

139:                                              ; preds = %136
  %140 = load ptr, ptr %7, align 8, !tbaa !266
  %141 = load i16, ptr %140, align 2, !tbaa !228
  %142 = zext i16 %141 to i32
  %143 = or i32 %142, 4
  %144 = trunc i32 %143 to i16
  store i16 %144, ptr %140, align 2, !tbaa !228
  br label %145

145:                                              ; preds = %139, %136
  %146 = load i8, ptr %14, align 1, !tbaa !157, !range !116, !noundef !117
  %147 = trunc i8 %146 to i1
  br i1 %147, label %154, label %148

148:                                              ; preds = %145
  %149 = load ptr, ptr %7, align 8, !tbaa !266
  %150 = load i16, ptr %149, align 2, !tbaa !228
  %151 = zext i16 %150 to i32
  %152 = or i32 %151, 8
  %153 = trunc i32 %152 to i16
  store i16 %153, ptr %149, align 2, !tbaa !228
  br label %154

154:                                              ; preds = %148, %145
  br label %155

155:                                              ; preds = %154, %120
  call void @llvm.lifetime.end.p0(i64 1, ptr %14) #14
  call void @llvm.lifetime.end.p0(i64 1, ptr %13) #14
  call void @llvm.lifetime.end.p0(i64 1, ptr %12) #14
  call void @llvm.lifetime.end.p0(i64 8, ptr %11) #14
  ret void
}