; Function Attrs: nounwind uwtable
define void @pmix_server_spawn_parser(ptr noundef readonly captures(none) %0, ptr noundef captures(none) initializes((0, 2)) %1, ptr noundef %2, ptr noundef %3, i64 noundef %4) local_unnamed_addr #0 {
  store i16 0, ptr %1, align 2, !tbaa !217
  %.not44 = icmp eq i64 %4, 0
  br i1 %.not44, label %._crit_edge.thread, label %.lr.ph

.lr.ph:                                           ; preds = %5, %39
  %.041 = phi i1 [ %.1, %39 ], [ false, %5 ]
  %.03340 = phi i1 [ %.134, %39 ], [ false, %5 ]
  %.03539 = phi i1 [ %.136, %39 ], [ false, %5 ]
  %.03738 = phi i64 [ %40, %39 ], [ 0, %5 ]
  %6 = getelementptr inbounds nuw %struct.pmix_info, ptr %3, i64 %.03738
  %7 = tail call zeroext i1 @PMIx_Check_key(ptr noundef %6, ptr noundef nonnull @.str.32) #19
  br i1 %7, label %8, label %14

8:                                                ; preds = %.lr.ph
  %9 = tail call i32 @PMIx_Info_true(ptr noundef %6) #19
  %10 = icmp eq i32 %9, 0
  br i1 %10, label %11, label %39

11:                                               ; preds = %8
  %12 = load i16, ptr %1, align 2, !tbaa !217
  %13 = or i16 %12, 1
  store i16 %13, ptr %1, align 2, !tbaa !217
  br label %39

14:                                               ; preds = %.lr.ph
  %15 = tail call zeroext i1 @PMIx_Check_key(ptr noundef %6, ptr noundef nonnull @.str.33) #19
  br i1 %15, label %16, label %22

16:                                               ; preds = %14
  %17 = tail call i32 @PMIx_Info_true(ptr noundef %6) #19
  %18 = icmp eq i32 %17, 0
  br i1 %18, label %19, label %39

19:                                               ; preds = %16
  %20 = load i16, ptr %1, align 2, !tbaa !217
  %21 = or i16 %20, 2
  store i16 %21, ptr %1, align 2, !tbaa !217
  br label %39

22:                                               ; preds = %14
  %23 = tail call zeroext i1 @PMIx_Check_key(ptr noundef %6, ptr noundef nonnull @.str.34) #19
  br i1 %23, label %24, label %30

24:                                               ; preds = %22
  %25 = tail call i32 @PMIx_Info_true(ptr noundef %6) #19
  %26 = icmp eq i32 %25, 0
  br i1 %26, label %27, label %39

27:                                               ; preds = %24
  %28 = load i16, ptr %1, align 2, !tbaa !217
  %29 = or i16 %28, 4
  store i16 %29, ptr %1, align 2, !tbaa !217
  br label %39

30:                                               ; preds = %22
  %31 = tail call zeroext i1 @PMIx_Check_key(ptr noundef %6, ptr noundef nonnull @.str.35) #19
  br i1 %31, label %32, label %38

32:                                               ; preds = %30
  %33 = tail call i32 @PMIx_Info_true(ptr noundef %6) #19
  %34 = icmp eq i32 %33, 0
  br i1 %34, label %35, label %39

35:                                               ; preds = %32
  %36 = load i16, ptr %1, align 2, !tbaa !217
  %37 = or i16 %36, 8
  store i16 %37, ptr %1, align 2, !tbaa !217
  br label %39

38:                                               ; preds = %30
  tail call void @pmix_iof_check_flags(ptr noundef %6, ptr noundef %2) #19
  br label %39

39:                                               ; preds = %8, %11, %24, %27, %35, %32, %38, %19, %16
  %.136 = phi i1 [ %.03539, %11 ], [ %.03539, %8 ], [ true, %19 ], [ true, %16 ], [ %.03539, %27 ], [ %.03539, %24 ], [ %.03539, %35 ], [ %.03539, %32 ], [ %.03539, %38 ]
  %.134 = phi i1 [ %.03340, %11 ], [ %.03340, %8 ], [ %.03340, %19 ], [ %.03340, %16 ], [ true, %27 ], [ true, %24 ], [ %.03340, %35 ], [ %.03340, %32 ], [ %.03340, %38 ]
  %.1 = phi i1 [ %.041, %11 ], [ %.041, %8 ], [ %.041, %19 ], [ %.041, %16 ], [ %.041, %27 ], [ %.041, %24 ], [ true, %35 ], [ true, %32 ], [ %.041, %38 ]
  %40 = add nuw i64 %.03738, 1
  %exitcond.not = icmp eq i64 %40, %4
  br i1 %exitcond.not, label %._crit_edge, label %.lr.ph, !llvm.loop !218

._crit_edge:                                      ; preds = %39
  %41 = getelementptr inbounds nuw i8, ptr %0, i64 136
  %42 = load i32, ptr %41, align 8, !tbaa !219
  %43 = and i32 %42, 4
  %.not = icmp eq i32 %43, 0
  br i1 %.not, label %60, label %49

._crit_edge.thread:                               ; preds = %5
  %44 = getelementptr inbounds nuw i8, ptr %0, i64 136
  %45 = load i32, ptr %44, align 8, !tbaa !219
  %46 = and i32 %45, 4
  %.not48 = icmp eq i32 %46, 0
  br i1 %.not48, label %60, label %.thread63

.thread63:                                        ; preds = %._crit_edge.thread
  %47 = load i16, ptr %1, align 2, !tbaa !217
  %48 = or i16 %47, 6
  store i16 %48, ptr %1, align 2, !tbaa !217
  br label %57

49:                                               ; preds = %._crit_edge
  br i1 %.136, label %52, label %.thread

.thread:                                          ; preds = %49
  %50 = load i16, ptr %1, align 2, !tbaa !217
  %51 = or i16 %50, 2
  store i16 %51, ptr %1, align 2, !tbaa !217
  br i1 %.134, label %56, label %53

52:                                               ; preds = %49
  br i1 %.134, label %56, label %53

53:                                               ; preds = %.thread, %52
  %54 = load i16, ptr %1, align 2, !tbaa !217
  %55 = or i16 %54, 4
  store i16 %55, ptr %1, align 2, !tbaa !217
  br i1 %.1, label %60, label %57

56:                                               ; preds = %.thread, %52
  br i1 %.1, label %60, label %57

57:                                               ; preds = %.thread63, %53, %56
  %58 = load i16, ptr %1, align 2, !tbaa !217
  %59 = or i16 %58, 8
  store i16 %59, ptr %1, align 2, !tbaa !217
  br label %60

60:                                               ; preds = %53, %._crit_edge.thread, %56, %57, %._crit_edge
  ret void
}